; Function Attrs: mustprogress uwtable
define noundef zeroext i1 @_ZNK6icu_758TimeZoneeqERKS0_(ptr noundef nonnull align 8 dereferenceable(72) %this, ptr noundef nonnull align 8 dereferenceable(72) %that) unnamed_addr #0 align 2 {
entry:
  %vtable = load ptr, ptr %this, align 8
  %0 = getelementptr inbounds i8, ptr %vtable, i64 -8
  %1 = load ptr, ptr %0, align 8
  %vtable2 = load ptr, ptr %that, align 8
  %2 = getelementptr inbounds i8, ptr %vtable2, i64 -8
  %3 = load ptr, ptr %2, align 8
  %__name.i = getelementptr inbounds i8, ptr %1, i64 8
  %4 = load ptr, ptr %__name.i, align 8
  %__name2.i = getelementptr inbounds i8, ptr %3, i64 8
  %5 = load ptr, ptr %__name2.i, align 8
  %cmp.i = icmp eq ptr %4, %5
  br i1 %cmp.i, label %land.rhs, label %if.end.i

if.end.i:                                         ; preds = %entry
  %6 = load i8, ptr %4, align 1
  %cmp4.not.i = icmp eq i8 %6, 42
  br i1 %cmp4.not.i, label %land.end, label %_ZNKSt9type_infoeqERKS_.exit

_ZNKSt9type_infoeqERKS_.exit:                     ; preds = %if.end.i
  %7 = load i8, ptr %5, align 1
  %cmp.i.i = icmp eq i8 %7, 42
  %cond.idx.i.i = zext i1 %cmp.i.i to i64
  %cond.i.i = getelementptr inbounds i8, ptr %5, i64 %cond.idx.i.i
  %call6.i = tail call i32 @strcmp(ptr noundef nonnull dereferenceable(1) %4, ptr noundef nonnull dereferenceable(1) %cond.i.i) #18
  %cmp7.i = icmp eq i32 %call6.i, 0
  br i1 %cmp7.i, label %land.rhs, label %land.end

land.rhs:                                         ; preds = %entry, %_ZNKSt9type_infoeqERKS_.exit
  %fID = getelementptr inbounds i8, ptr %this, i64 8
  %fID3 = getelementptr inbounds i8, ptr %that, i64 8
  %fUnion.i.i = getelementptr inbounds i8, ptr %this, i64 16
  %8 = load i16, ptr %fUnion.i.i, align 8
  %conv2.i14.i = and i16 %8, 1
  %tobool.not.i = icmp eq i16 %conv2.i14.i, 0
  br i1 %tobool.not.i, label %if.else.i, label %if.then.i

if.then.i:                                        ; preds = %land.rhs
  %fUnion.i5.i = getelementptr inbounds i8, ptr %that, i64 16
  %9 = load i16, ptr %fUnion.i5.i, align 8
  %conv2.i615.i = and i16 %9, 1
  %tobool3.i = icmp ne i16 %conv2.i615.i, 0
  br label %land.end

if.else.i:                                        ; preds = %land.rhs
  %cmp.i.i.i = icmp slt i16 %8, 0
  %10 = ashr i16 %8, 5
  %shr.i.i.i = sext i16 %10 to i32
  %fLength.i.i = getelementptr inbounds i8, ptr %this, i64 20
  %11 = load i32, ptr %fLength.i.i, align 4
  %cond.i.i3 = select i1 %cmp.i.i.i, i32 %11, i32 %shr.i.i.i
  %fUnion.i.i7.i = getelementptr inbounds i8, ptr %that, i64 16
  %12 = load i16, ptr %fUnion.i.i7.i, align 8
  %cmp.i.i8.i = icmp slt i16 %12, 0
  %13 = ashr i16 %12, 5
  %shr.i.i9.i = sext i16 %13 to i32
  %fLength.i10.i = getelementptr inbounds i8, ptr %that, i64 20
  %14 = load i32, ptr %fLength.i10.i, align 4
  %cond.i11.i = select i1 %cmp.i.i8.i, i32 %14, i32 %shr.i.i9.i
  %conv2.i1316.i = and i16 %12, 1
  %tobool7.not.i = icmp eq i16 %conv2.i1316.i, 0
  %cmp.i4 = icmp eq i32 %cond.i.i3, %cond.i11.i
  %or.cond.i = and i1 %tobool7.not.i, %cmp.i4
  br i1 %or.cond.i, label %land.rhs.i5, label %land.end

land.rhs.i5:                                      ; preds = %if.else.i
  %call8.i = tail call noundef signext i8 @_ZNK6icu_7513UnicodeString8doEqualsERKS0_i(ptr noundef nonnull align 8 dereferenceable(64) %fID, ptr noundef nonnull align 8 dereferenceable(64) %fID3, i32 noundef %cond.i.i3)
  %tobool9.i = icmp ne i8 %call8.i, 0
  br label %land.end

land.end:                                         ; preds = %if.end.i, %land.rhs.i5, %if.else.i, %if.then.i, %_ZNKSt9type_infoeqERKS_.exit
  %15 = phi i1 [ false, %_ZNKSt9type_infoeqERKS_.exit ], [ %tobool3.i, %if.then.i ], [ false, %if.else.i ], [ %tobool9.i, %land.rhs.i5 ], [ false, %if.end.i ]
  ret i1 %15
}